******************************************************************************
                  MSP430 Linker PC v3.3.1                      
******************************************************************************
>> Linked Thu Sep 28 16:20:58 2017

OUTPUT FILE NAME:   <Transceiver.out>
ENTRY POINT SYMBOL: "_c_int00"  address: 000093e2


MEMORY CONFIGURATION

         name            origin    length      used     unused   attr    fill
----------------------  --------  ---------  --------  --------  ----  --------
  SFR                   00000000   00000010  00000000  00000010  RWIX
  PERIPHERALS_8BIT      00000010   000000f0  00000000  000000f0  RWIX
  PERIPHERALS_16BIT     00000100   00000100  00000000  00000100  RWIX
  RAM                   00000200   00000400  00000203  000001fd  RWIX
  INFOD                 00001000   00000040  00000000  00000040  RWIX
  INFOC                 00001040   00000040  00000000  00000040  RWIX
  INFOB                 00001080   00000040  00000000  00000040  RWIX
  INFOA                 000010c0   00000040  00000000  00000040  RWIX
  FLASH                 00008000   00007fde  00001710  000068ce  RWIX
  INT00                 0000ffe0   00000002  00000000  00000002  RWIX
  INT01                 0000ffe2   00000002  00000000  00000002  RWIX
  INT02                 0000ffe4   00000002  00000000  00000002  RWIX
  INT03                 0000ffe6   00000002  00000002  00000000  RWIX
  INT04                 0000ffe8   00000002  00000000  00000002  RWIX
  INT05                 0000ffea   00000002  00000000  00000002  RWIX
  INT06                 0000ffec   00000002  00000000  00000002  RWIX
  INT07                 0000ffee   00000002  00000002  00000000  RWIX
  INT08                 0000fff0   00000002  00000000  00000002  RWIX
  INT09                 0000fff2   00000002  00000002  00000000  RWIX
  INT10                 0000fff4   00000002  00000000  00000002  RWIX
  INT11                 0000fff6   00000002  00000000  00000002  RWIX
  INT12                 0000fff8   00000002  00000000  00000002  RWIX
  INT13                 0000fffa   00000002  00000000  00000002  RWIX
  INT14                 0000fffc   00000002  00000000  00000002  RWIX
  RESET                 0000fffe   00000002  00000002  00000000  RWIX


SECTION ALLOCATION MAP

 output                                  attributes/
section   page    origin      length       input sections
--------  ----  ----------  ----------   ----------------
.pinit     0    00008000    00000000     UNINITIALIZED

.bss       0    00000200    0000019f     UNINITIALIZED
                  00000200    000000ac     main.obj (.bss)
                  000002ac    00000096     queue.obj (.bss)
                  00000342    00000023     net_intf_transceive.obj (.bss)
                  00000365    00000001     --HOLE--
                  00000366    00000020     timer_a.obj (.bss)
                  00000386    0000000a     CC1101.obj (.bss)
                  00000390    00000004     rts430.lib : _lock.obj (.bss)
                  00000394    00000004                : boot.obj (.bss)
                  00000398    00000004                : rand.obj (.bss)
                  0000039c    00000003     process.obj (.bss)

.stack     0    0000059c    00000064     UNINITIALIZED
                  0000059c    00000002     rts430.lib : boot.obj (.stack)
                  0000059e    00000062     --HOLE--

.text      0    00008000    00001648     
                  00008000    000001b0     process.obj (.text:process_data_from_host__FPUcUc)
                  000081b0    0000013e     process.obj (.text:process_data_from_node__FPUcUc)
                  000082ee    000000fc     CC1101.obj (.text:CC1101SendPacket__FPUcUc12TX_DATA_MODE13WIRELESS_PART)
                  000083ea    000000f6     CC1101.obj (.text:CC1101RecPacket__FPUc13WIRELESS_PART)
                  000084e0    000000ee     main.obj (.text:main)
                  000085ce    000000da     net_intf_transceive.obj (.text:process_usart_rx_data__FUc)
                  000086a8    000000ac     timer_a.obj (.text:Schd_Run__FUl)
                  00008754    000000a2     process.obj (.text:RfTransmitPacket__FPUcUc)
                  000087f6    0000009a     process.obj (.text:transfer_data_to485___Fv)
                  00008890    00000092     CC1101.obj (.text:CC1101Init__F13WIRELESS_PART)
                  00008922    00000088     flash.obj (.text:WriteFlash__FUiPUcUc)
                  000089aa    00000088     process.obj (.text:send_freq_request_ack__Fv)
                  00008a32    00000080     CC1101.obj (.text:CC1101ReadMultiReg__FUcPUcT113WIRELESS_PART)
                  00008ab2    00000080     queue.obj (.text:enArray__FPUcUc)
                  00008b32    0000007c     timer_a.obj (.text:Schd_After_Int__FUlPFv_v)
                  00008bae    00000078     process.obj (.text:UartTransmitPacket__FPUcUc)
                  00008c26    00000072     rf_receive.obj (.text:PORT2_ISR__Fv)
                  00008c98    00000066     timer_a.obj (.text:timeout__FUlT1)
                  00008cfe    00000064     CC1101.obj (.text:CC1101WriteMultiReg__FUcPUcT113WIRELESS_PART)
                  00008d62    0000005a     spi.obj (.text:SPI_ExchangeByte__FUc)
                  00008dbc    00000056     main.obj (.text:read_para_from_flash__Fv)
                  00008e12    00000050     CC1101.obj (.text:CC1101SetTRMode__F6TRMODE13WIRELESS_PART)
                  00008e62    0000004e     CC1101.obj (.text:cc1101_set_channel__FUc13WIRELESS_PART)
                  00008eb0    0000004c     CC1101.obj (.text:CC1101Reset__F13WIRELESS_PART)
                  00008efc    0000004c     rts430.lib : lsr16.obj (.text)
                  00008f48    00000048     CC1101.obj (.text:init_cc1101_gpio__Fv)
                  00008f90    00000046     CC1101.obj (.text:CC1101ReadReg__FUc13WIRELESS_PART)
                  00008fd6    00000046     CC1101.obj (.text:CC1101ReadStatus__FUc13WIRELESS_PART)
                  0000901c    00000046     rts430.lib : autoinit.obj (.text:_auto_init)
                  00009062    00000044     timer_a.obj (.text:Timer_A__Fv)
                  000090a6    00000044     queue.obj (.text:init_485_data_buf__Fv)
                  000090ea    00000042     main.obj (.text:InitSysClk__Fv)
                  0000912c    0000003e     CC1101.obj (.text:CC1101WriteReg__FUcT113WIRELESS_PART)
                  0000916a    0000003c     process.obj (.text:Delay_nms__FUl)
                  000091a6    0000003c     queue.obj (.text:queue_isEmpty__Fv)
                  000091e2    0000003a     flash.obj (.text:ReadFlash__FUiPUcUc)
                  0000921c    00000038     rts430.lib : rand.obj (.text:rand)
                  00009254    00000032     CC1101.obj (.text:CC1101WriteCmd__FUc13WIRELESS_PART)
                  00009286    00000030     CC1101.obj (.text:CC1101SetSYNC__FUi13WIRELESS_PART)
                  000092b6    0000002e     main.obj (.text:led_flash__Fv)
                  000092e4    0000002e     process.obj (.text:move_data_buf__Fv)
                  00009312    0000002c     main.obj (.text:InitLed__Fv)
                  0000933e    0000002c     process.obj (.text:_2index__FUc)
                  0000936a    0000002c     rts430.lib : lsl16.obj (.text)
                  00009396    00000026     main.obj (.text:InitUCA0__Fv)
                  000093bc    00000026     net_intf_transceive.obj (.text:USCI0RX_ISR__Fv)
                  000093e2    00000026     rts430.lib : boot.obj (.text:_c_int00_noexit)
                  00009408    00000026                : mult32.obj (.text)
                  0000942e    00000020                : memmov.obj (.text:memmove)
                  0000944e    0000001e     process.obj (.text:Delay_1ms__Fv)
                  0000946c    0000001c     main.obj (.text:init_drivers__Fv)
                  00009488    0000001c     process.obj (.text:send_data_to485__Fv)
                  000094a4    0000001a     CC1101.obj (.text:CC1101GetRXCnt__F13WIRELESS_PART)
                  000094be    00000018     CC1101.obj (.text:CC1101ClrRXBuff__F13WIRELESS_PART)
                  000094d6    00000018     CC1101.obj (.text:CC1101ClrTXBuff__F13WIRELESS_PART)
                  000094ee    00000018     rts430.lib : rand.obj (.text:srand)
                  00009506    00000016     main.obj (.text:debug_print__FPUcUc)
                  0000951c    00000016     CC1101.obj (.text:init_cc1101__Fv)
                  00009532    00000016     rts430.lib : div16u.obj (.text)
                  00009548    00000014     CC1101.obj (.text:CC1101SetIdle__F13WIRELESS_PART)
                  0000955c    00000014     main.obj (.text:InitTimerA__Fv)
                  00009570    00000014     rf_receive.obj (.text:IsClr__FUc)
                  00009584    00000014     rts430.lib : memset.obj (.text:memset)
                  00009598    00000014                : mult16.obj (.text)
                  000095ac    00000012     CC1101.obj (.text:init_spi__Fv)
                  000095be    00000012     rts430.lib : memcpy.obj (.text:memcpy)
                  000095d0    00000010                : epilog.obj (.text)
                  000095e0    0000000e     main.obj (.text:Init485__Fv)
                  000095ee    0000000a     timer_a.obj (.text:_local_tickime__Fv)
                  000095f8    00000008     main.obj (.text:feed_watchdog__Fv)
                  00009600    00000008     main.obj (.text:status_led_reverse__Fv)
                  00009608    00000006     process.obj (.text:_485_setting_enable__Fv)
                  0000960e    00000006     main.obj (.text:uart_trx_led_off__Fv)
                  00009614    00000006     process.obj (.text:uart_trx_led_off__Fv)
                  0000961a    00000006     main.obj (.text:uart_trx_led_on__Fv)
                  00009620    00000006     process.obj (.text:uart_trx_led_on__Fv)
                  00009626    00000006     main.obj (.text:wireless_trx_led_off__Fv)
                  0000962c    00000006     process.obj (.text:wireless_trx_led_off__Fv)
                  00009632    00000006     main.obj (.text:wireless_trx_led_on__Fv)
                  00009638    00000006     process.obj (.text:wireless_trx_led_on__Fv)
                  0000963e    00000004     rts430.lib : pre_init.obj (.text:_system_pre_init)
                  00009642    00000004                : exit.obj (.text:abort)
                  00009646    00000002                : _lock.obj (.text:_nop)

.cinit     0    00009648    00000082     
                  00009648    00000024     timer_a.obj (.cinit)
                  0000966c    00000018     CC1101.obj (.cinit)
                  00009684    00000018     main.obj (.cinit)
                  0000969c    00000011     net_intf_transceive.obj (.cinit)
                  000096ad    00000001     --HOLE-- [fill = 0]
                  000096ae    00000011     process.obj (.cinit)
                  000096bf    00000001     --HOLE-- [fill = 0]
                  000096c0    00000008     rts430.lib : rand.obj (.cinit)
                  000096c8    00000002     --HOLE-- [fill = 0]

.const     0    000096ca    00000046     
                  000096ca    00000034     CC1101.obj (.const:CC1101InitData)
                  000096fe    0000000a     CC1101.obj (.const:Channel_Table)
                  00009708    00000008     main.obj (.const:.string)

.int03     0    0000ffe6    00000002     
                  0000ffe6    00000002     rf_receive.obj (.int03)

.int07     0    0000ffee    00000002     
                  0000ffee    00000002     net_intf_transceive.obj (.int07)

.int09     0    0000fff2    00000002     
                  0000fff2    00000002     timer_a.obj (.int09)

.reset     0    0000fffe    00000002     
                  0000fffe    00000002     rts430.lib : boot.obj (.reset)


GLOBAL SYMBOLS: SORTED ALPHABETICALLY BY Name 

address    name
--------   ----
00000200   .bss
00008000   .text
0000004a   ADC10AE0
0000004b   ADC10AE1
000001b0   ADC10CTL0
000001b2   ADC10CTL1
00000048   ADC10DTC0
00000049   ADC10DTC1
000001b4   ADC10MEM
000001bc   ADC10SA
00000057   BCSCTL1
00000058   BCSCTL2
00000053   BCSCTL3
00009642   C$$EXIT
000010fb   CALBC1_12MHZ
000010f9   CALBC1_16MHZ
000010ff   CALBC1_1MHZ
000010fd   CALBC1_8MHZ
000010fa   CALDCO_12MHZ
000010f8   CALDCO_16MHZ
000010fe   CALDCO_1MHZ
000010fc   CALDCO_8MHZ
000094be   CC1101ClrRXBuff__F13WIRELESS_PART
000094d6   CC1101ClrTXBuff__F13WIRELESS_PART
000094a4   CC1101GetRXCnt__F13WIRELESS_PART
00008890   CC1101Init__F13WIRELESS_PART
00008a32   CC1101ReadMultiReg__FUcPUcT113WIRELESS_PART
00008f90   CC1101ReadReg__FUc13WIRELESS_PART
00008fd6   CC1101ReadStatus__FUc13WIRELESS_PART
000083ea   CC1101RecPacket__FPUc13WIRELESS_PART
00008eb0   CC1101Reset__F13WIRELESS_PART
000082ee   CC1101SendPacket__FPUcUc12TX_DATA_MODE13WIRELESS_PART
00009548   CC1101SetIdle__F13WIRELESS_PART
00009286   CC1101SetSYNC__FUi13WIRELESS_PART
00008e12   CC1101SetTRMode__F6TRMODE13WIRELESS_PART
00009254   CC1101WriteCmd__FUc13WIRELESS_PART
00008cfe   CC1101WriteMultiReg__FUcPUcT113WIRELESS_PART
0000912c   CC1101WriteReg__FUcT113WIRELESS_PART
00000056   DCOCTL
0000944e   Delay_1ms__Fv
0000916a   Delay_nms__FUl
00000128   FCTL1
0000012a   FCTL2
0000012c   FCTL3
00000000   IE1
00000001   IE2
00000002   IFG1
00000003   IFG2
0000936a   I_LSL
00009392   I_LSL_1
00009380   I_LSL_10
0000937e   I_LSL_11
0000937c   I_LSL_12
0000937a   I_LSL_13
00009378   I_LSL_14
00009376   I_LSL_15
00009390   I_LSL_2
0000938e   I_LSL_3
0000938c   I_LSL_4
0000938a   I_LSL_5
00009388   I_LSL_6
00009386   I_LSL_7
00009384   I_LSL_8
00009382   I_LSL_9
00008efc   I_LSR
00008f42   I_LSR_1
00008f1e   I_LSR_10
00008f1a   I_LSR_11
00008f16   I_LSR_12
00008f12   I_LSR_13
00008f0e   I_LSR_14
00008f0a   I_LSR_15
00008f3e   I_LSR_2
00008f3a   I_LSR_3
00008f36   I_LSR_4
00008f32   I_LSR_5
00008f2e   I_LSR_6
00008f2a   I_LSR_7
00008f26   I_LSR_8
00008f22   I_LSR_9
00000022   P1DIR
00000025   P1IE
00000024   P1IES
00000023   P1IFG
00000020   P1IN
00000021   P1OUT
00000027   P1REN
00000026   P1SEL
0000002a   P2DIR
0000002d   P2IE
0000002c   P2IES
0000002b   P2IFG
00000028   P2IN
00000029   P2OUT
0000002f   P2REN
0000002e   P2SEL
0000001a   P3DIR
00000018   P3IN
00000019   P3OUT
00000010   P3REN
0000001b   P3SEL
0000001e   P4DIR
0000001c   P4IN
0000001d   P4OUT
00000011   P4REN
0000001f   P4SEL
00008c26   PORT2_ISR__Fv
00000388   PaTabel
000091e2   ReadFlash__FUiPUcUc
00008754   RfTransmitPacket__FPUcUc
00008d62   SPI_ExchangeByte__FUc
00008b32   Schd_After_Int__FUlPFv_v
000086a8   Schd_Run__FUl
00000172   TACCR0
00000174   TACCR1
00000176   TACCR2
00000162   TACCTL0
00000164   TACCTL1
00000166   TACCTL2
00000160   TACTL
0000012e   TAIV
00000170   TAR
00000192   TBCCR0
00000194   TBCCR1
00000196   TBCCR2
00000182   TBCCTL0
00000184   TBCCTL1
00000186   TBCCTL2
00000180   TBCTL
0000011e   TBIV
00000190   TBR
00009062   Timer_A__Fv
0000005d   UCA0ABCTL
00000062   UCA0BR0
00000063   UCA0BR1
00000060   UCA0CTL0
00000061   UCA0CTL1
0000005f   UCA0IRRCTL
0000005e   UCA0IRTCTL
00000064   UCA0MCTL
00000066   UCA0RXBUF
00000065   UCA0STAT
00000067   UCA0TXBUF
0000006a   UCB0BR0
0000006b   UCB0BR1
00000068   UCB0CTL0
00000069   UCB0CTL1
0000006c   UCB0I2CIE
00000118   UCB0I2COA
0000011a   UCB0I2CSA
0000006e   UCB0RXBUF
0000006d   UCB0STAT
0000006f   UCB0TXBUF
000093bc   USCI0RX_ISR__Fv
00008bae   UartTransmitPacket__FPUcUc
00000120   WDTCTL
00008922   WriteFlash__FUiPUcUc
000002a5   ZJ_Ch
0000933e   _2index__FUc
0000039e   _485_send_ack
0000039c   _485_send_lock
0000039d   _485_send_retry_times
00009608   _485_setting_enable__Fv
00000600   __STACK_END
00000064   __STACK_SIZE
00000001   __TI_args_main
00000001   __TI_auto_init
00000001   __TI_exit
ffffffff   __binit__
00000200   __bss__
ffffffff   __c_args__
00009648   __cinit__
00009532   __divu
0000039f   __end__
00009648   __etext__
00009598   __mpyi
00009408   __mpyl
ffffffff   __pinit__
00009532   __remu
00008000   __text__
0000901c   _auto_init
000093e2   _c_int00
000093e2   _c_int00_noexit
00000394   _cleanup_ptr
00000396   _dtors_ptr
000095ee   _local_tickime__Fv
00000366   _local_time_tick
00000390   _lock
00009646   _nop
0000fffe   _reset_vector
0000036a   _schd_items
00000382   _schd_last_microsecond
0000059c   _stack
0000963e   _system_pre_init
00000392   _unlock
00009642   abort
00000200   bRfRcv
00000201   bRfSend
ffffffff   binit
00008e62   cc1101_set_channel__FUc13WIRELESS_PART
00009648   cinit
000002ac   data_buf_to_transfer
00000224   data_from_host
000002a4   data_from_host_len
00009506   debug_print__FPUcUc
000002a6   dev_id
00008ab2   enArray__FPUcUc
0000039f   end
00009648   etext
000095f8   feed_watchdog__Fv
000095dc   func_epilog_1
000095da   func_epilog_2
000095d8   func_epilog_3
000095d6   func_epilog_4
000095d4   func_epilog_5
000095d2   func_epilog_6
000095d0   func_epilog_7
000090a6   init_485_data_buf__Fv
0000951c   init_cc1101__Fv
0000946c   init_drivers__Fv
000092b6   led_flash__Fv
000084e0   main
000095be   memcpy
0000942e   memmove
00009584   memset
000092e4   move_data_buf__Fv
ffffffff   pinit
00008000   process_data_from_host__FPUcUc
000081b0   process_data_from_node__FPUcUc
000085ce   process_usart_rx_data__FUc
000091a6   queue_isEmpty__Fv
0000921c   rand
00008dbc   read_para_from_flash__Fv
00009488   send_data_to485__Fv
000089aa   send_freq_request_ack__Fv
000094ee   srand
00008c98   timeout__FUlT1
000087f6   transfer_data_to485___Fv
00000387   tx_done
00000386   tx_enable
00000342   usart_rx_buf
00000362   usart_rx_index
00000363   usart_rx_success
00000202   wireless_rxbuf
00000222   wireless_rxlen


GLOBAL SYMBOLS: SORTED BY Symbol Address 

address    name
--------   ----
00000000   IE1
00000001   IE2
00000001   __TI_args_main
00000001   __TI_auto_init
00000001   __TI_exit
00000002   IFG1
00000003   IFG2
00000010   P3REN
00000011   P4REN
00000018   P3IN
00000019   P3OUT
0000001a   P3DIR
0000001b   P3SEL
0000001c   P4IN
0000001d   P4OUT
0000001e   P4DIR
0000001f   P4SEL
00000020   P1IN
00000021   P1OUT
00000022   P1DIR
00000023   P1IFG
00000024   P1IES
00000025   P1IE
00000026   P1SEL
00000027   P1REN
00000028   P2IN
00000029   P2OUT
0000002a   P2DIR
0000002b   P2IFG
0000002c   P2IES
0000002d   P2IE
0000002e   P2SEL
0000002f   P2REN
00000048   ADC10DTC0
00000049   ADC10DTC1
0000004a   ADC10AE0
0000004b   ADC10AE1
00000053   BCSCTL3
00000056   DCOCTL
00000057   BCSCTL1
00000058   BCSCTL2
0000005d   UCA0ABCTL
0000005e   UCA0IRTCTL
0000005f   UCA0IRRCTL
00000060   UCA0CTL0
00000061   UCA0CTL1
00000062   UCA0BR0
00000063   UCA0BR1
00000064   UCA0MCTL
00000064   __STACK_SIZE
00000065   UCA0STAT
00000066   UCA0RXBUF
00000067   UCA0TXBUF
00000068   UCB0CTL0
00000069   UCB0CTL1
0000006a   UCB0BR0
0000006b   UCB0BR1
0000006c   UCB0I2CIE
0000006d   UCB0STAT
0000006e   UCB0RXBUF
0000006f   UCB0TXBUF
00000118   UCB0I2COA
0000011a   UCB0I2CSA
0000011e   TBIV
00000120   WDTCTL
00000128   FCTL1
0000012a   FCTL2
0000012c   FCTL3
0000012e   TAIV
00000160   TACTL
00000162   TACCTL0
00000164   TACCTL1
00000166   TACCTL2
00000170   TAR
00000172   TACCR0
00000174   TACCR1
00000176   TACCR2
00000180   TBCTL
00000182   TBCCTL0
00000184   TBCCTL1
00000186   TBCCTL2
00000190   TBR
00000192   TBCCR0
00000194   TBCCR1
00000196   TBCCR2
000001b0   ADC10CTL0
000001b2   ADC10CTL1
000001b4   ADC10MEM
000001bc   ADC10SA
00000200   .bss
00000200   __bss__
00000200   bRfRcv
00000201   bRfSend
00000202   wireless_rxbuf
00000222   wireless_rxlen
00000224   data_from_host
000002a4   data_from_host_len
000002a5   ZJ_Ch
000002a6   dev_id
000002ac   data_buf_to_transfer
00000342   usart_rx_buf
00000362   usart_rx_index
00000363   usart_rx_success
00000366   _local_time_tick
0000036a   _schd_items
00000382   _schd_last_microsecond
00000386   tx_enable
00000387   tx_done
00000388   PaTabel
00000390   _lock
00000392   _unlock
00000394   _cleanup_ptr
00000396   _dtors_ptr
0000039c   _485_send_lock
0000039d   _485_send_retry_times
0000039e   _485_send_ack
0000039f   __end__
0000039f   end
0000059c   _stack
00000600   __STACK_END
000010f8   CALDCO_16MHZ
000010f9   CALBC1_16MHZ
000010fa   CALDCO_12MHZ
000010fb   CALBC1_12MHZ
000010fc   CALDCO_8MHZ
000010fd   CALBC1_8MHZ
000010fe   CALDCO_1MHZ
000010ff   CALBC1_1MHZ
00008000   .text
00008000   __text__
00008000   process_data_from_host__FPUcUc
000081b0   process_data_from_node__FPUcUc
000082ee   CC1101SendPacket__FPUcUc12TX_DATA_MODE13WIRELESS_PART
000083ea   CC1101RecPacket__FPUc13WIRELESS_PART
000084e0   main
000085ce   process_usart_rx_data__FUc
000086a8   Schd_Run__FUl
00008754   RfTransmitPacket__FPUcUc
000087f6   transfer_data_to485___Fv
00008890   CC1101Init__F13WIRELESS_PART
00008922   WriteFlash__FUiPUcUc
000089aa   send_freq_request_ack__Fv
00008a32   CC1101ReadMultiReg__FUcPUcT113WIRELESS_PART
00008ab2   enArray__FPUcUc
00008b32   Schd_After_Int__FUlPFv_v
00008bae   UartTransmitPacket__FPUcUc
00008c26   PORT2_ISR__Fv
00008c98   timeout__FUlT1
00008cfe   CC1101WriteMultiReg__FUcPUcT113WIRELESS_PART
00008d62   SPI_ExchangeByte__FUc
00008dbc   read_para_from_flash__Fv
00008e12   CC1101SetTRMode__F6TRMODE13WIRELESS_PART
00008e62   cc1101_set_channel__FUc13WIRELESS_PART
00008eb0   CC1101Reset__F13WIRELESS_PART
00008efc   I_LSR
00008f0a   I_LSR_15
00008f0e   I_LSR_14
00008f12   I_LSR_13
00008f16   I_LSR_12
00008f1a   I_LSR_11
00008f1e   I_LSR_10
00008f22   I_LSR_9
00008f26   I_LSR_8
00008f2a   I_LSR_7
00008f2e   I_LSR_6
00008f32   I_LSR_5
00008f36   I_LSR_4
00008f3a   I_LSR_3
00008f3e   I_LSR_2
00008f42   I_LSR_1
00008f90   CC1101ReadReg__FUc13WIRELESS_PART
00008fd6   CC1101ReadStatus__FUc13WIRELESS_PART
0000901c   _auto_init
00009062   Timer_A__Fv
000090a6   init_485_data_buf__Fv
0000912c   CC1101WriteReg__FUcT113WIRELESS_PART
0000916a   Delay_nms__FUl
000091a6   queue_isEmpty__Fv
000091e2   ReadFlash__FUiPUcUc
0000921c   rand
00009254   CC1101WriteCmd__FUc13WIRELESS_PART
00009286   CC1101SetSYNC__FUi13WIRELESS_PART
000092b6   led_flash__Fv
000092e4   move_data_buf__Fv
0000933e   _2index__FUc
0000936a   I_LSL
00009376   I_LSL_15
00009378   I_LSL_14
0000937a   I_LSL_13
0000937c   I_LSL_12
0000937e   I_LSL_11
00009380   I_LSL_10
00009382   I_LSL_9
00009384   I_LSL_8
00009386   I_LSL_7
00009388   I_LSL_6
0000938a   I_LSL_5
0000938c   I_LSL_4
0000938e   I_LSL_3
00009390   I_LSL_2
00009392   I_LSL_1
000093bc   USCI0RX_ISR__Fv
000093e2   _c_int00
000093e2   _c_int00_noexit
00009408   __mpyl
0000942e   memmove
0000944e   Delay_1ms__Fv
0000946c   init_drivers__Fv
00009488   send_data_to485__Fv
000094a4   CC1101GetRXCnt__F13WIRELESS_PART
000094be   CC1101ClrRXBuff__F13WIRELESS_PART
000094d6   CC1101ClrTXBuff__F13WIRELESS_PART
000094ee   srand
00009506   debug_print__FPUcUc
0000951c   init_cc1101__Fv
00009532   __divu
00009532   __remu
00009548   CC1101SetIdle__F13WIRELESS_PART
00009584   memset
00009598   __mpyi
000095be   memcpy
000095d0   func_epilog_7
000095d2   func_epilog_6
000095d4   func_epilog_5
000095d6   func_epilog_4
000095d8   func_epilog_3
000095da   func_epilog_2
000095dc   func_epilog_1
000095ee   _local_tickime__Fv
000095f8   feed_watchdog__Fv
00009608   _485_setting_enable__Fv
0000963e   _system_pre_init
00009642   C$$EXIT
00009642   abort
00009646   _nop
00009648   __cinit__
00009648   __etext__
00009648   cinit
00009648   etext
0000fffe   _reset_vector
ffffffff   __binit__
ffffffff   __c_args__
ffffffff   __pinit__
ffffffff   binit
ffffffff   pinit

[245 symbols]
